target datalayout = "e-m:e-p270:32:32-p271:32:32-p272:64:64-i64:64-i128:128-f80:128-n8:16:32:64-S128"
target triple = "x86_64-pc-linux-gnu"

%class.substitution_tree = type { ptr, %class.ptr_vector, i32, %class.ptr_vector.0, i32, %class.ptr_vector.2, i32, %class.bit_vector, %class.svector, %class.svector.5, %class.svector.5, ptr, %class.ptr_vector, i32, i32, i32, %class.svector.7 }
%class.ptr_vector.0 = type { %class.vector.1 }
%class.vector.1 = type { ptr }
%class.ptr_vector.2 = type { %class.vector.3 }
%class.vector.3 = type { ptr }
%class.bit_vector = type { i32, i32, ptr }
%class.svector = type { %class.vector.4 }
%class.vector.4 = type { ptr }
%class.svector.5 = type { %class.vector.6 }
%class.vector.6 = type { ptr }
%class.ptr_vector = type { %class.vector }
%class.vector = type { ptr }
%class.svector.7 = type { %class.vector.8 }
%class.vector.8 = type { ptr }

; Function Attrs: mustprogress nounwind uwtable
define linkonce_odr hidden noundef nonnull align 4 dereferenceable(4) ptr @_ZN10bit_vector12get_bit_wordEj(ptr noundef nonnull align 8 dereferenceable(16) %0, i32 noundef %1) #6 comdat align 2 {
  %3 = alloca ptr, align 8
  %4 = alloca i32, align 4
  store ptr %0, ptr %3, align 8, !tbaa !37
  store i32 %1, ptr %4, align 4, !tbaa !33
  %5 = load ptr, ptr %3, align 8
  %6 = getelementptr inbounds nuw %class.bit_vector, ptr %5, i32 0, i32 2
  %7 = load ptr, ptr %6, align 8, !tbaa !103
  %8 = load i32, ptr %4, align 4, !tbaa !33
  %9 = udiv i32 %8, 32
  %10 = zext i32 %9 to i64
  %11 = getelementptr inbounds nuw i32, ptr %7, i64 %10
  ret ptr %11
}

; Function Attrs: mustprogress nounwind uwtable
define linkonce_odr hidden noundef i32 @_ZN10bit_vector12get_pos_maskEj(i32 noundef %0) #6 comdat align 2 {
  %2 = alloca i32, align 4
  store i32 %0, ptr %2, align 4, !tbaa !33
  %3 = load i32, ptr %2, align 4, !tbaa !33
  %4 = urem i32 %3, 32
  %5 = shl i32 1, %4
  ret i32 %5
}

; Function Attrs: mustprogress uwtable
define linkonce_odr hidden void @_ZN10bit_vector3setEj(ptr noundef nonnull align 8 dereferenceable(16) %0, i32 noundef %1) #4 comdat align 2 {
  %3 = alloca ptr, align 8
  %4 = alloca i32, align 4
  store ptr %0, ptr %3, align 8, !tbaa !37
  store i32 %1, ptr %4, align 4, !tbaa !33
  %5 = load ptr, ptr %3, align 8
  %6 = load i32, ptr %4, align 4, !tbaa !33
  %7 = call noundef i32 @_ZN10bit_vector12get_pos_maskEj(i32 noundef %6)
  %8 = load i32, ptr %4, align 4, !tbaa !33
  %9 = call noundef nonnull align 4 dereferenceable(4) ptr @_ZN10bit_vector12get_bit_wordEj(ptr noundef nonnull align 8 dereferenceable(16) %5, i32 noundef %8)
  %10 = load i32, ptr %9, align 4, !tbaa !33
  %11 = or i32 %10, %7
  store i32 %11, ptr %9, align 4, !tbaa !33
  ret void
}

; Function Attrs: mustprogress nounwind uwtable
define linkonce_odr hidden noundef i32 @_ZNK10bit_vector4sizeEv(ptr noundef nonnull align 8 dereferenceable(16) %0) #6 comdat align 2 {
  %2 = alloca ptr, align 8
  store ptr %0, ptr %2, align 8, !tbaa !37
  %3 = load ptr, ptr %2, align 8
  %4 = getelementptr inbounds nuw %class.bit_vector, ptr %3, i32 0, i32 0
  %5 = load i32, ptr %4, align 8, !tbaa !39
  ret i32 %5
}

; Function Attrs: mustprogress uwtable
define hidden void @_ZN17substitution_tree13mark_used_regEj(ptr noundef nonnull align 8 dereferenceable(136) %0, i32 noundef %1) #4 align 2 {
  %3 = alloca ptr, align 8
  %4 = alloca i32, align 4
  store ptr %0, ptr %3, align 8, !tbaa !3
  store i32 %1, ptr %4, align 4, !tbaa !33
  %5 = load ptr, ptr %3, align 8
  %6 = load i32, ptr %4, align 4, !tbaa !33
  %7 = getelementptr inbounds nuw %class.substitution_tree, ptr %5, i32 0, i32 7
  %8 = call noundef i32 @_ZNK10bit_vector4sizeEv(ptr noundef nonnull align 8 dereferenceable(16) %7)
  %9 = icmp uge i32 %6, %8
  br i1 %9, label %10, label %14

10:                                               ; preds = %2
  %11 = getelementptr inbounds nuw %class.substitution_tree, ptr %5, i32 0, i32 7
  %12 = load i32, ptr %4, align 4, !tbaa !33
  %13 = add i32 %12, 1
  call void @_ZN10bit_vector6resizeEjb(ptr noundef nonnull align 8 dereferenceable(16) %11, i32 noundef %13, i1 noundef zeroext false)
  br label %14

14:                                               ; preds = %10, %2
  %15 = getelementptr inbounds nuw %class.substitution_tree, ptr %5, i32 0, i32 7
  %16 = load i32, ptr %4, align 4, !tbaa !33
  call void @_ZN10bit_vector3setEj(ptr noundef nonnull align 8 dereferenceable(16) %15, i32 noundef %16)
  ret void
}