; Function Attrs: mustprogress uwtable
define hidden void @_ZN17substitution_tree13mark_used_regEj(ptr noundef nonnull align 8 dereferenceable(136) %0, i32 noundef %1) local_unnamed_addr #5 align 2 {
  %3 = getelementptr inbounds nuw i8, ptr %0, i64 56
  %4 = load i32, ptr %3, align 8, !tbaa !3
  %.not = icmp ult i32 %1, %4
  br i1 %.not, label %7, label %5

5:                                                ; preds = %2
  %6 = add i32 %1, 1
  tail call void @_ZN10bit_vector6resizeEjb(ptr noundef nonnull align 8 dereferenceable(16) %3, i32 noundef %6, i1 noundef zeroext false)
  br label %7

7:                                                ; preds = %5, %2
  %8 = and i32 %1, 31
  %9 = shl nuw i32 1, %8
  %10 = getelementptr inbounds nuw i8, ptr %0, i64 64
  %11 = load ptr, ptr %10, align 8, !tbaa !77
  %12 = lshr i32 %1, 5
  %13 = zext nneg i32 %12 to i64
  %14 = getelementptr inbounds nuw i32, ptr %11, i64 %13
  %15 = load i32, ptr %14, align 4, !tbaa !33
  %16 = or i32 %15, %9
  store i32 %16, ptr %14, align 4, !tbaa !33
  ret void
}